; ModuleID = '58/1048.c'
source_filename = "58/1048.c"
target datalayout = "e-m:e-p270:32:32-p271:32:32-p272:64:64-i64:64-f80:128-n8:16:32:64-S128"
target triple = "x86_64-pc-linux-gnu"

@.str = private unnamed_addr constant [3 x i8] c"%d\00", align 1
@.str.1 = private unnamed_addr constant [3 x i8] c"%c\00", align 1
@.str.2 = private unnamed_addr constant [4 x i8] c"%d\0A\00", align 1

; Function Attrs: noinline nounwind uwtable
define dso_local i32 @number(i8 signext %0) #0 {
  %2 = alloca i32, align 4
  %3 = alloca i8, align 1
  %4 = alloca i32, align 4
  store i8 %0, i8* %3, align 1
  %5 = load i8, i8* %3, align 1
  %6 = sext i8 %5 to i32
  %7 = sub nsw i32 %6, 48
  store i32 %7, i32* %4, align 4
  %8 = load i32, i32* %4, align 4
  %9 = icmp sge i32 %8, 0
  br i1 %9, label %10, label %14

10:                                               ; preds = %1
  %11 = load i32, i32* %4, align 4
  %12 = icmp sle i32 %11, 9
  br i1 %12, label %13, label %14

13:                                               ; preds = %10
  store i32 1, i32* %2, align 4
  br label %15

14:                                               ; preds = %10, %1
  store i32 0, i32* %2, align 4
  br label %15

15:                                               ; preds = %14, %13
  %16 = load i32, i32* %2, align 4
  ret i32 %16
}

; Function Attrs: noinline nounwind uwtable
define dso_local i32 @line(i8 signext %0) #0 {
  %2 = alloca i32, align 4
  %3 = alloca i8, align 1
  %4 = alloca i32, align 4
  store i8 %0, i8* %3, align 1
  %5 = load i8, i8* %3, align 1
  %6 = sext i8 %5 to i32
  %7 = sub nsw i32 %6, 95
  store i32 %7, i32* %4, align 4
  %8 = load i32, i32* %4, align 4
  %9 = icmp eq i32 %8, 0
  br i1 %9, label %10, label %11

10:                                               ; preds = %1
  store i32 1, i32* %2, align 4
  br label %12

11:                                               ; preds = %1
  store i32 0, i32* %2, align 4
  br label %12

12:                                               ; preds = %11, %10
  %13 = load i32, i32* %2, align 4
  ret i32 %13
}

; Function Attrs: noinline nounwind uwtable
define dso_local i32 @small(i8 signext %0) #0 {
  %2 = alloca i32, align 4
  %3 = alloca i8, align 1
  %4 = alloca i32, align 4
  store i8 %0, i8* %3, align 1
  %5 = load i8, i8* %3, align 1
  %6 = sext i8 %5 to i32
  %7 = sub nsw i32 %6, 97
  store i32 %7, i32* %4, align 4
  %8 = load i32, i32* %4, align 4
  %9 = icmp sge i32 %8, 0
  br i1 %9, label %10, label %14

10:                                               ; preds = %1
  %11 = load i32, i32* %4, align 4
  %12 = icmp sle i32 %11, 25
  br i1 %12, label %13, label %14

13:                                               ; preds = %10
  store i32 1, i32* %2, align 4
  br label %15

14:                                               ; preds = %10, %1
  store i32 0, i32* %2, align 4
  br label %15

15:                                               ; preds = %14, %13
  %16 = load i32, i32* %2, align 4
  ret i32 %16
}

; Function Attrs: noinline nounwind uwtable
define dso_local i32 @big(i8 signext %0) #0 {
  %2 = alloca i32, align 4
  %3 = alloca i8, align 1
  %4 = alloca i32, align 4
  store i8 %0, i8* %3, align 1
  %5 = load i8, i8* %3, align 1
  %6 = sext i8 %5 to i32
  %7 = sub nsw i32 %6, 65
  store i32 %7, i32* %4, align 4
  %8 = load i32, i32* %4, align 4
  %9 = icmp sge i32 %8, 0
  br i1 %9, label %10, label %14

10:                                               ; preds = %1
  %11 = load i32, i32* %4, align 4
  %12 = icmp sle i32 %11, 25
  br i1 %12, label %13, label %14

13:                                               ; preds = %10
  store i32 1, i32* %2, align 4
  br label %15

14:                                               ; preds = %10, %1
  store i32 0, i32* %2, align 4
  br label %15

15:                                               ; preds = %14, %13
  %16 = load i32, i32* %2, align 4
  ret i32 %16
}

; Function Attrs: noinline nounwind uwtable
define dso_local i32 @main() #0 {
  %1 = alloca i32, align 4
  %2 = alloca i32, align 4
  %3 = alloca i32, align 4
  %4 = alloca i32, align 4
  %5 = alloca i32, align 4
  %6 = alloca [81 x i8], align 16
  %7 = alloca [100 x i32], align 16
  store i32 0, i32* %1, align 4
  %8 = bitcast [100 x i32]* %7 to i8*
  call void @llvm.memset.p0i8.i64(i8* align 16 %8, i8 0, i64 400, i1 false)
  %9 = call i32 (i8*, ...) @__isoc99_scanf(i8* getelementptr inbounds ([3 x i8], [3 x i8]* @.str, i64 0, i64 0), i32* %2)
  %10 = getelementptr inbounds [81 x i8], [81 x i8]* %6, i64 0, i64 0
  %11 = call i32 (i8*, ...) @__isoc99_scanf(i8* getelementptr inbounds ([3 x i8], [3 x i8]* @.str.1, i64 0, i64 0), i8* %10)
  store i32 1, i32* %3, align 4
  br label %12

12:                                               ; preds = %90, %0
  %13 = load i32, i32* %3, align 4
  %14 = load i32, i32* %2, align 4
  %15 = icmp sle i32 %13, %14
  br i1 %15, label %16, label %93

16:                                               ; preds = %12
  %17 = load i32, i32* %3, align 4
  %18 = sub nsw i32 %17, 1
  %19 = sext i32 %18 to i64
  %20 = getelementptr inbounds [100 x i32], [100 x i32]* %7, i64 0, i64 %19
  store i32 1, i32* %20, align 4
  store i32 1, i32* %4, align 4
  br label %21

21:                                               ; preds = %76, %16
  %22 = load i32, i32* %4, align 4
  %23 = icmp sle i32 %22, 81
  br i1 %23, label %24, label %79

24:                                               ; preds = %21
  %25 = load i32, i32* %4, align 4
  %26 = sub nsw i32 %25, 1
  %27 = sext i32 %26 to i64
  %28 = getelementptr inbounds [81 x i8], [81 x i8]* %6, i64 0, i64 %27
  %29 = call i32 (i8*, ...) @__isoc99_scanf(i8* getelementptr inbounds ([3 x i8], [3 x i8]* @.str.1, i64 0, i64 0), i8* %28)
  %30 = load i32, i32* %4, align 4
  %31 = sub nsw i32 %30, 1
  %32 = sext i32 %31 to i64
  %33 = getelementptr inbounds [81 x i8], [81 x i8]* %6, i64 0, i64 %32
  %34 = load i8, i8* %33, align 1
  %35 = sext i8 %34 to i32
  %36 = sub nsw i32 %35, 10
  store i32 %36, i32* %5, align 4
  %37 = load i32, i32* %5, align 4
  %38 = icmp eq i32 %37, 0
  br i1 %38, label %39, label %40

39:                                               ; preds = %24
  br label %79

40:                                               ; preds = %24
  %41 = load i32, i32* %4, align 4
  %42 = sub nsw i32 %41, 1
  %43 = sext i32 %42 to i64
  %44 = getelementptr inbounds [81 x i8], [81 x i8]* %6, i64 0, i64 %43
  %45 = load i8, i8* %44, align 1
  %46 = call i32 @line(i8 signext %45)
  %47 = load i32, i32* %4, align 4
  %48 = sub nsw i32 %47, 1
  %49 = sext i32 %48 to i64
  %50 = getelementptr inbounds [81 x i8], [81 x i8]* %6, i64 0, i64 %49
  %51 = load i8, i8* %50, align 1
  %52 = call i32 @number(i8 signext %51)
  %53 = add nsw i32 %46, %52
  %54 = load i32, i32* %4, align 4
  %55 = sub nsw i32 %54, 1
  %56 = sext i32 %55 to i64
  %57 = getelementptr inbounds [81 x i8], [81 x i8]* %6, i64 0, i64 %56
  %58 = load i8, i8* %57, align 1
  %59 = call i32 @big(i8 signext %58)
  %60 = add nsw i32 %53, %59
  %61 = load i32, i32* %4, align 4
  %62 = sub nsw i32 %61, 1
  %63 = sext i32 %62 to i64
  %64 = getelementptr inbounds [81 x i8], [81 x i8]* %6, i64 0, i64 %63
  %65 = load i8, i8* %64, align 1
  %66 = call i32 @small(i8 signext %65)
  %67 = add nsw i32 %60, %66
  store i32 %67, i32* %5, align 4
  %68 = load i32, i32* %5, align 4
  %69 = icmp eq i32 %68, 0
  br i1 %69, label %70, label %75

70:                                               ; preds = %40
  %71 = load i32, i32* %3, align 4
  %72 = sub nsw i32 %71, 1
  %73 = sext i32 %72 to i64
  %74 = getelementptr inbounds [100 x i32], [100 x i32]* %7, i64 0, i64 %73
  store i32 0, i32* %74, align 4
  br label %75

75:                                               ; preds = %70, %40
  br label %76

76:                                               ; preds = %75
  %77 = load i32, i32* %4, align 4
  %78 = add nsw i32 %77, 1
  store i32 %78, i32* %4, align 4
  br label %21

79:                                               ; preds = %39, %21
  %80 = getelementptr inbounds [81 x i8], [81 x i8]* %6, i64 0, i64 0
  %81 = load i8, i8* %80, align 16
  %82 = call i32 @number(i8 signext %81)
  %83 = icmp eq i32 %82, 1
  br i1 %83, label %84, label %89

84:                                               ; preds = %79
  %85 = load i32, i32* %3, align 4
  %86 = sub nsw i32 %85, 1
  %87 = sext i32 %86 to i64
  %88 = getelementptr inbounds [100 x i32], [100 x i32]* %7, i64 0, i64 %87
  store i32 0, i32* %88, align 4
  br label %89

89:                                               ; preds = %84, %79
  br label %90

90:                                               ; preds = %89
  %91 = load i32, i32* %3, align 4
  %92 = add nsw i32 %91, 1
  store i32 %92, i32* %3, align 4
  br label %12

93:                                               ; preds = %12
  store i32 1, i32* %3, align 4
  br label %94

94:                                               ; preds = %105, %93
  %95 = load i32, i32* %3, align 4
  %96 = load i32, i32* %2, align 4
  %97 = icmp sle i32 %95, %96
  br i1 %97, label %98, label %108

98:                                               ; preds = %94
  %99 = load i32, i32* %3, align 4
  %100 = sub nsw i32 %99, 1
  %101 = sext i32 %100 to i64
  %102 = getelementptr inbounds [100 x i32], [100 x i32]* %7, i64 0, i64 %101
  %103 = load i32, i32* %102, align 4
  %104 = call i32 (i8*, ...) @printf(i8* getelementptr inbounds ([4 x i8], [4 x i8]* @.str.2, i64 0, i64 0), i32 %103)
  br label %105

105:                                              ; preds = %98
  %106 = load i32, i32* %3, align 4
  %107 = add nsw i32 %106, 1
  store i32 %107, i32* %3, align 4
  br label %94

108:                                              ; preds = %94
  ret i32 0
}

; Function Attrs: argmemonly nounwind willreturn
declare void @llvm.memset.p0i8.i64(i8* nocapture writeonly, i8, i64, i1 immarg) #1

declare dso_local i32 @__isoc99_scanf(i8*, ...) #2

declare dso_local i32 @printf(i8*, ...) #2


!llvm.module.flags = !{!0}
!llvm.ident = !{!1}

!0 = !{i32 1, !"wchar_size", i32 4}
!1 = !{!"clang version 10.0.0-4ubuntu1 "}
