; ModuleID = 'source-C-CXX/57/1048.c'
source_filename = "source-C-CXX/57/1048.c"
target datalayout = "e-m:e-p270:32:32-p271:32:32-p272:64:64-i64:64-f80:128-n8:16:32:64-S128"
target triple = "x86_64-pc-linux-gnu"

@.str = private unnamed_addr constant [3 x i8] c"%d\00", align 1
@.str.1 = private unnamed_addr constant [3 x i8] c"%c\00", align 1
@.str.2 = private unnamed_addr constant [4 x i8] c"%d\0A\00", align 1

; Function Attrs: mustprogress nofree norecurse nosync nounwind readnone sspstrong uwtable willreturn
define dso_local i32 @number(i8 signext %0) local_unnamed_addr #0 {
  %2 = add i8 %0, -48
  %3 = icmp ult i8 %2, 10
  %4 = zext i1 %3 to i32
  ret i32 %4
}

; Function Attrs: argmemonly mustprogress nofree nosync nounwind willreturn
declare void @llvm.lifetime.start.p0i8(i64 immarg, i8* nocapture) #1

; Function Attrs: argmemonly mustprogress nofree nosync nounwind willreturn
declare void @llvm.lifetime.end.p0i8(i64 immarg, i8* nocapture) #1

; Function Attrs: mustprogress nofree norecurse nosync nounwind readnone sspstrong uwtable willreturn
define dso_local i32 @line(i8 signext %0) local_unnamed_addr #0 {
  %2 = icmp eq i8 %0, 95
  %3 = zext i1 %2 to i32
  ret i32 %3
}

; Function Attrs: mustprogress nofree norecurse nosync nounwind readnone sspstrong uwtable willreturn
define dso_local i32 @small(i8 signext %0) local_unnamed_addr #0 {
  %2 = add i8 %0, -97
  %3 = icmp ult i8 %2, 26
  %4 = zext i1 %3 to i32
  ret i32 %4
}

; Function Attrs: mustprogress nofree norecurse nosync nounwind readnone sspstrong uwtable willreturn
define dso_local i32 @big(i8 signext %0) local_unnamed_addr #0 {
  %2 = add i8 %0, -65
  %3 = icmp ult i8 %2, 26
  %4 = zext i1 %3 to i32
  ret i32 %4
}

; Function Attrs: nofree nounwind sspstrong uwtable
define dso_local i32 @main() local_unnamed_addr #2 {
  %1 = alloca i32, align 4
  %2 = alloca [81 x i8], align 16
  %3 = alloca [100 x i32], align 16
  %4 = bitcast i32* %1 to i8*
  call void @llvm.lifetime.start.p0i8(i64 4, i8* nonnull %4) #5
  %5 = getelementptr inbounds [81 x i8], [81 x i8]* %2, i64 0, i64 0
  call void @llvm.lifetime.start.p0i8(i64 81, i8* nonnull %5) #5
  %6 = bitcast [100 x i32]* %3 to i8*
  call void @llvm.lifetime.start.p0i8(i64 400, i8* nonnull %6) #5
  call void @llvm.memset.p0i8.i64(i8* noundef nonnull align 16 dereferenceable(400) %6, i8 0, i64 400, i1 false)
  %7 = call i32 (i8*, ...) @__isoc99_scanf(i8* getelementptr inbounds ([3 x i8], [3 x i8]* @.str, i64 0, i64 0), i32* nonnull %1)
  %8 = call i32 (i8*, ...) @__isoc99_scanf(i8* getelementptr inbounds ([3 x i8], [3 x i8]* @.str.1, i64 0, i64 0), i8* nonnull %5)
  %9 = load i32, i32* %1, align 4, !tbaa !5
  %10 = icmp slt i32 %9, 1
  br i1 %10, label %63, label %13

11:                                               ; preds = %48
  %12 = icmp slt i32 %50, 1
  br i1 %12, label %63, label %53

13:                                               ; preds = %0, %48
  %14 = phi i64 [ %49, %48 ], [ 1, %0 ]
  %15 = add nsw i64 %14, -1
  %16 = getelementptr inbounds [100 x i32], [100 x i32]* %3, i64 0, i64 %15
  store i32 1, i32* %16, align 4, !tbaa !5
  br label %17

17:                                               ; preds = %13, %40
  %18 = phi i64 [ 1, %13 ], [ %41, %40 ]
  %19 = add nsw i64 %18, -1
  %20 = getelementptr inbounds [81 x i8], [81 x i8]* %2, i64 0, i64 %19
  %21 = call i32 (i8*, ...) @__isoc99_scanf(i8* getelementptr inbounds ([3 x i8], [3 x i8]* @.str.1, i64 0, i64 0), i8* nonnull %20)
  %22 = load i8, i8* %20, align 1, !tbaa !9
  %23 = icmp eq i8 %22, 10
  br i1 %23, label %43, label %24

24:                                               ; preds = %17
  %25 = icmp eq i8 %22, 95
  %26 = zext i1 %25 to i32
  %27 = add i8 %22, -48
  %28 = icmp ult i8 %27, 10
  %29 = zext i1 %28 to i32
  %30 = add nuw nsw i32 %29, %26
  %31 = add i8 %22, -65
  %32 = icmp ult i8 %31, 26
  %33 = zext i1 %32 to i32
  %34 = add nuw nsw i32 %30, %33
  %35 = add i8 %22, -97
  %36 = icmp ult i8 %35, 26
  %37 = sext i1 %36 to i32
  %38 = icmp eq i32 %34, %37
  br i1 %38, label %39, label %40

39:                                               ; preds = %24
  store i32 0, i32* %16, align 4, !tbaa !5
  br label %40

40:                                               ; preds = %24, %39
  %41 = add nuw nsw i64 %18, 1
  %42 = icmp eq i64 %41, 82
  br i1 %42, label %43, label %17, !llvm.loop !10

43:                                               ; preds = %17, %40
  %44 = load i8, i8* %5, align 16, !tbaa !9
  %45 = add i8 %44, -48
  %46 = icmp ult i8 %45, 10
  br i1 %46, label %47, label %48

47:                                               ; preds = %43
  store i32 0, i32* %16, align 4, !tbaa !5
  br label %48

48:                                               ; preds = %43, %47
  %49 = add nuw nsw i64 %14, 1
  %50 = load i32, i32* %1, align 4, !tbaa !5
  %51 = sext i32 %50 to i64
  %52 = icmp slt i64 %14, %51
  br i1 %52, label %13, label %11, !llvm.loop !12

53:                                               ; preds = %11, %53
  %54 = phi i64 [ %59, %53 ], [ 1, %11 ]
  %55 = add nsw i64 %54, -1
  %56 = getelementptr inbounds [100 x i32], [100 x i32]* %3, i64 0, i64 %55
  %57 = load i32, i32* %56, align 4, !tbaa !5
  %58 = call i32 (i8*, ...) @printf(i8* nonnull dereferenceable(1) getelementptr inbounds ([4 x i8], [4 x i8]* @.str.2, i64 0, i64 0), i32 %57)
  %59 = add nuw nsw i64 %54, 1
  %60 = load i32, i32* %1, align 4, !tbaa !5
  %61 = sext i32 %60 to i64
  %62 = icmp slt i64 %54, %61
  br i1 %62, label %53, label %63, !llvm.loop !13

63:                                               ; preds = %53, %0, %11
  call void @llvm.lifetime.end.p0i8(i64 400, i8* nonnull %6) #5
  call void @llvm.lifetime.end.p0i8(i64 81, i8* nonnull %5) #5
  call void @llvm.lifetime.end.p0i8(i64 4, i8* nonnull %4) #5
  ret i32 0
}

; Function Attrs: argmemonly mustprogress nofree nounwind willreturn writeonly
declare void @llvm.memset.p0i8.i64(i8* nocapture writeonly, i8, i64, i1 immarg) #3

; Function Attrs: nofree nounwind
declare noundef i32 @__isoc99_scanf(i8* nocapture noundef readonly, ...) local_unnamed_addr #4

; Function Attrs: nofree nounwind
declare noundef i32 @printf(i8* nocapture noundef readonly, ...) local_unnamed_addr #4


!llvm.module.flags = !{!0, !1, !2, !3}
!llvm.ident = !{!4}

!0 = !{i32 1, !"wchar_size", i32 4}
!1 = !{i32 7, !"PIC Level", i32 2}
!2 = !{i32 7, !"PIE Level", i32 2}
!3 = !{i32 7, !"uwtable", i32 1}
!4 = !{!"clang version 13.0.0"}
!5 = !{!6, !6, i64 0}
!6 = !{!"int", !7, i64 0}
!7 = !{!"omnipotent char", !8, i64 0}
!8 = !{!"Simple C/C++ TBAA"}
!9 = !{!7, !7, i64 0}
!10 = distinct !{!10, !11}
!11 = !{!"llvm.loop.mustprogress"}
!12 = distinct !{!12, !11}
!13 = distinct !{!13, !11}
